MPASM 5.77                     PRINCIPAL.ASM   11-27-2020  10:36:32         PAGE  1


LOC  OBJECT CODE     LINE SOURCE TEXT
  VALUE

                      00001 ;******************************************************************************
                      00002 ;   Filename:       Proyecto3 -> principal.asm
                      00003 ;   Date:                   12/11/2020
                      00004 ;   File Version:           v.1
                      00005 ;   Author:                 Noel Prado
                      00006 ;   Company:        UVG
                      00007 ;   Description:            proyecto 3
                      00008 ;
                      00009 ;*******************************************************************************  
                      00010 
                      00011 #include "p16f887.inc"
                      00001         LIST
                      00002 
                      00003 ;==========================================================================
                      00004 ; Build date : Nov 22 2017
                      00005 ;  MPASM PIC16F887 processor include
                      00006 ; 
                      00007 ;  (c) Copyright 1999-2017 Microchip Technology, All rights reserved
                      00008 ;==========================================================================
                      00009 
                      00810         LIST
                      00012 
                      00013 ; CONFIG1
                      00014 ; __config 0xE0D5
2007   20D4           00015  __CONFIG _CONFIG1, _FOSC_INTRC_NOCLKOUT & _WDTE_OFF & _PWRTE_OFF & _MCLRE_OFF & _CP_OFF & _CPD_OFF & _B
                            OREN_OFF & _IESO_OFF & _FCMEN_OFF & _LVP_OFF
                      00016 ; CONFIG2
                      00017 ; __config 0xFFFF
2008   3FFF           00018  __CONFIG _CONFIG2, _BOR4V_BOR40V & _WRT_OFF
                      00019 
Warning[207]: Found label after column 1. (GPR_VAR)
                      00020   GPR_VAR UDATA
                      00021  
Warning[207]: Found label after column 1. (W_TEMP)
0000                  00022  W_TEMP RES 1
Warning[207]: Found label after column 1. (STATUS_TEMP)
0001                  00023  STATUS_TEMP RES 1
Warning[207]: Found label after column 1. (FSR_TEMP)
0002                  00024  FSR_TEMP RES 1
                      00025 
Warning[207]: Found label after column 1. (CANAL0)
0003                  00026  CANAL0 RES 1
Warning[207]: Found label after column 1. (CANAL1)
0004                  00027  CANAL1 RES 1
Warning[207]: Found label after column 1. (CANAL2)
0005                  00028  CANAL2 RES 1
Warning[207]: Found label after column 1. (CONTROL_ADC)
0006                  00029  CONTROL_ADC RES 1 
Warning[207]: Found label after column 1. (AJUSTE_PWM)
0007                  00030  AJUSTE_PWM RES 1
Warning[207]: Found label after column 1. (TIMING1)
0008                  00031  TIMING1 RES 1 
Warning[207]: Found label after column 1. (TIMING2)
MPASM 5.77                     PRINCIPAL.ASM   11-27-2020  10:36:32         PAGE  2


LOC  OBJECT CODE     LINE SOURCE TEXT
  VALUE

0009                  00032  TIMING2 RES 1 
Warning[207]: Found label after column 1. (CONTROL_ONDA)
000A                  00033  CONTROL_ONDA RES 1 
Warning[207]: Found label after column 1. (CONTROL_TX)
000B                  00034  CONTROL_TX RES 1 
Warning[207]: Found label after column 1. (VALOR_CENTENAS_BOCA)
000C                  00035  VALOR_CENTENAS_BOCA RES 1
Warning[207]: Found label after column 1. (VALOR_DECENAS_BOCA)
000D                  00036  VALOR_DECENAS_BOCA  RES 1
Warning[207]: Found label after column 1. (VALOR_UNIDADES_BOCA)
000E                  00037  VALOR_UNIDADES_BOCA RES  1
Warning[207]: Found label after column 1. (VALOR_CENTENAS_CEJA1)
000F                  00038  VALOR_CENTENAS_CEJA1 RES 1
Warning[207]: Found label after column 1. (VALOR_DECENAS_CEJA1)
0010                  00039  VALOR_DECENAS_CEJA1  RES 1
Warning[207]: Found label after column 1. (VALOR_UNIDADES_CEJA1)
0011                  00040  VALOR_UNIDADES_CEJA1 RES  1
Warning[207]: Found label after column 1. (VALOR_CENTENAS_CEJA2)
0012                  00041  VALOR_CENTENAS_CEJA2 RES 1
Warning[207]: Found label after column 1. (VALOR_DECENAS_CEJA2)
0013                  00042  VALOR_DECENAS_CEJA2  RES 1
Warning[207]: Found label after column 1. (VALOR_UNIDADES_CEJA2)
0014                  00043  VALOR_UNIDADES_CEJA2 RES  1
Warning[207]: Found label after column 1. (VALOR_BIN)
0015                  00044  VALOR_BIN RES 1
Warning[207]: Found label after column 1. (VALOR_CENTENAS)
0016                  00045  VALOR_CENTENAS RES 1
Warning[207]: Found label after column 1. (VALOR_DECENAS)
0017                  00046  VALOR_DECENAS  RES 1
Warning[207]: Found label after column 1. (VALOR_UNIDADES)
0018                  00047  VALOR_UNIDADES RES  1
Warning[207]: Found label after column 1. (DEL)
0019                  00048  DEL            RES 1
                      00049 
                      00050  
                      00051 RES_VECT  CODE    0x0000            ; processor reset vector
0000   2???           00052     GOTO    START                   ; go to beginning of program
                      00053 
                      00054 ; TODO ADD INTERRUPTS HERE IF USED
                      00055 ISR_VECT    CODE 0x0004
                      00056     
0004                  00057 PUSH:
0004   00??           00058     MOVWF   W_TEMP
0005   0E03           00059     SWAPF   STATUS,W
0006   00??           00060     MOVWF   STATUS_TEMP
0007   0E04           00061     SWAPF   FSR,W
0008   00??           00062     MOVWF  FSR_TEMP
                      00063 
0009                  00064 INT_TMR0:
0009   1D0B           00065     BTFSS   INTCON,T0IF
000A   2???           00066     GOTO    INT_ADC
000B   110B           00067     BCF INTCON,T0IF
                      00068     
MPASM 5.77                     PRINCIPAL.ASM   11-27-2020  10:36:32         PAGE  3


LOC  OBJECT CODE     LINE SOURCE TEXT
  VALUE

000C   3000           00069      MOVLW   .0
000D   02??           00070     SUBWF   CONTROL_ONDA, W
000E   1903           00071     BTFSC  STATUS, Z 
000F   2???           00072     GOTO ONDA_INICIA
                      00073     
0010   3001           00074     MOVLW   .1
0011   02??           00075     SUBWF   CONTROL_ONDA, W
0012   1903           00076     BTFSC  STATUS, Z 
0013   2???           00077     GOTO ONDA1
                      00078     
0014   3002           00079     MOVLW   .2
0015   02??           00080     SUBWF   CONTROL_ONDA, W
0016   1903           00081     BTFSC  STATUS, Z 
0017   2???           00082     GOTO ONDA2
                      00083     
Warning[207]: Found label after column 1. (ONDA_INICIA)
0018                  00084     ONDA_INICIA ;EN LA PRIMERA FASE SE COLOCA EN 1 EL PIN RC0 Y RC3 SE ENCUENTRA EN 0
0018   1407           00085     BSF PORTC, RC0 ;SE COLOCA EN 1
0019   08??           00086     MOVF    TIMING1,W 
001A   0181           00087     CLRF        TMR0
001B   0281           00088     SUBWF   TMR0,F  ;TMRO =  256 - TRABAJO1
001C   0A??           00089     INCF    CONTROL_ONDA,F ;A LA SIGUIENTE ENTRADA SE EJECUTA PWM1
001D   2???           00090     GOTO INT_ADC
                      00091     
Warning[207]: Found label after column 1. (ONDA1)
001E                  00092     ONDA1
001E   1007           00093     BCF PORTC,RC0 ;AL PASAR EL TIEMPO ESTABLECIDO POR LA VARIABLE TRABAJO 1
001F   1587           00094     BSF PORTC, RC3
0020   08??           00095     MOVF   TIMING2,W
0021   0181           00096     CLRF TMR0
0022   0281           00097     SUBWF   TMR0,F ;256 - TRABAJO2
0023   0A??           00098     INCF CONTROL_ONDA,F
0024   2???           00099     GOTO INT_ADC
                      00100     
Warning[207]: Found label after column 1. (ONDA2)
0025                  00101     ONDA2
0025   1007           00102     BCF PORTC,RC0
0026   1187           00103     BCF PORTC,RC3
0027   0181           00104     CLRF        TMR0 ;LA SIGUIENTE INTERRUPCION OCURRIRA DENTRO DE 4.09mS
0028   01??           00105     CLRF CONTROL_ONDA
                      00106     
0029                  00107 INT_ADC:
0029   1F0C           00108     BTFSS   PIR1, ADIF 
002A   2???           00109     GOTO    POP ;SI NO ESTA ACTIVA SE SALE
                      00110     
002B   130C           00111     BCF PIR1, ADIF
002C   3000           00112     MOVLW   .0
002D   02??           00113     SUBWF   CONTROL_ADC, W
002E   1903           00114     BTFSC  STATUS, Z 
002F   2???           00115     GOTO RT_ADC0
                      00116     
0030   3001           00117     MOVLW   .1
0031   02??           00118     SUBWF   CONTROL_ADC, W
MPASM 5.77                     PRINCIPAL.ASM   11-27-2020  10:36:32         PAGE  4


LOC  OBJECT CODE     LINE SOURCE TEXT
  VALUE

0032   1903           00119     BTFSC  STATUS, Z 
0033   2???           00120     GOTO RT_ADC1
                      00121     
0034   3002           00122     MOVLW   .2
0035   02??           00123     SUBWF   CONTROL_ADC, W
0036   1903           00124     BTFSC  STATUS, Z 
0037   2???           00125     GOTO RT_ADC2
                      00126     
0038   01??           00127     CLRF    CONTROL_ADC
Warning[207]: Found label after column 1. (RT_ADC0)
0039                  00128     RT_ADC0
0039   081E           00129     MOVF    ADRESH, W
003A   00??           00130     MOVWF   CANAL0
003B   119F           00131     BCF ADCON0,CHS1
003C   151F           00132     BSF ADCON0,CHS0 ;SE SELECCIONA EL CANAL 1
003D   2???           00133     GOTO FIN
                      00134     
Warning[207]: Found label after column 1. (RT_ADC1)
003E                  00135     RT_ADC1
003E   081E           00136     MOVF    ADRESH, W
003F   00??           00137     MOVWF   CANAL1
0040   159F           00138     BSF ADCON0,CHS1
0041   111F           00139     BCF ADCON0,CHS0 ;SE SELECCIONA EL CANAL 2
0042   2???           00140     GOTO FIN
                      00141    
Warning[207]: Found label after column 1. (RT_ADC2)
0043                  00142     RT_ADC2
0043   081E           00143     MOVF    ADRESH,W
0044   00??           00144     MOVWF   CANAL2
0045   119F           00145     BCF ADCON0,CHS1
0046   111F           00146     BCF ADCON0,CHS0 ;SE SELECCIONA EL CANAL 0
0047   2???           00147     GOTO FIN
                      00148     
Warning[207]: Found label after column 1. (FIN)
0048                  00149     FIN
0048   0A??           00150     INCF    CONTROL_ADC,F
0049   149F           00151     BSF ADCON0,GO ;INICIA CONVERSION
                      00152     
004A                  00153 POP:
004A   0E??           00154     SWAPF   STATUS_TEMP,W
004B   0083           00155     MOVWF   STATUS
004C   0E??           00156     SWAPF   FSR_TEMP,W
004D   0084           00157     MOVWF   FSR
004E   0E??           00158     SWAPF   W_TEMP,F
004F   0E??           00159     SWAPF   W_TEMP,W
0050   0009           00160     RETFIE
                      00161     
0051                  00162 SEND_DATA:
0051   1E0C           00163     BTFSS   PIR1,TXIF ;SI NO ESTA OCUPADO SE SALTA EL RETURN
0052   0008           00164     RETURN
                      00165    
                      00166     ;----- SE DETERMINA QUE DATO HAY QUE ENVIAR -------------------------------
                      00167     
MPASM 5.77                     PRINCIPAL.ASM   11-27-2020  10:36:32         PAGE  5


LOC  OBJECT CODE     LINE SOURCE TEXT
  VALUE

0053   3000           00168     MOVLW   .0
0054   02??           00169     SUBWF CONTROL_TX, W
0055   1903           00170     BTFSC   STATUS, Z
0056   2???           00171     GOTO    PRIMERO
                      00172     
0057   3001           00173     MOVLW   .1
0058   02??           00174     SUBWF CONTROL_TX, W
0059   1903           00175     BTFSC   STATUS, Z
005A   2???           00176     GOTO    SEGUNDO
                      00177     
005B   3002           00178     MOVLW   .2
005C   02??           00179     SUBWF CONTROL_TX, W
005D   1903           00180     BTFSC   STATUS, Z
005E   2???           00181     GOTO    TERCERO
                      00182     
005F   3003           00183     MOVLW   .3
0060   02??           00184     SUBWF CONTROL_TX, W
0061   1903           00185     BTFSC   STATUS, Z
0062   2???           00186     GOTO    COMA
                      00187     
0063   3004           00188     MOVLW   .4
0064   02??           00189     SUBWF CONTROL_TX, W
0065   1903           00190     BTFSC   STATUS, Z
0066   2???           00191     GOTO    CUARTO
                      00192     
0067   3005           00193     MOVLW   .5
0068   02??           00194     SUBWF CONTROL_TX, W
0069   1903           00195     BTFSC   STATUS, Z
006A   2???           00196     GOTO    QUINTO
                      00197     
006B   3006           00198     MOVLW   .6
006C   02??           00199     SUBWF CONTROL_TX, W
006D   1903           00200     BTFSC   STATUS, Z
006E   2???           00201     GOTO    SEXTO
                      00202     
006F   3007           00203     MOVLW   .7
0070   02??           00204     SUBWF CONTROL_TX, W
0071   1903           00205     BTFSC   STATUS, Z
0072   2???           00206     GOTO    COMA
                      00207     
0073   3008           00208     MOVLW   .8
0074   02??           00209     SUBWF CONTROL_TX, W
0075   1903           00210     BTFSC   STATUS, Z
0076   2???           00211     GOTO    SEPTIMO
                      00212     
0077   3009           00213     MOVLW   .9
0078   02??           00214     SUBWF CONTROL_TX, W
0079   1903           00215     BTFSC   STATUS, Z
007A   2???           00216     GOTO    OCTAVO
                      00217     
007B   300A           00218     MOVLW   .10
007C   02??           00219     SUBWF CONTROL_TX, W
007D   1903           00220     BTFSC   STATUS, Z
MPASM 5.77                     PRINCIPAL.ASM   11-27-2020  10:36:32         PAGE  6


LOC  OBJECT CODE     LINE SOURCE TEXT
  VALUE

007E   2???           00221     GOTO    NOVENO
                      00222     
007F   300B           00223     MOVLW   .11
0080   02??           00224     SUBWF CONTROL_TX, W
0081   1903           00225     BTFSC   STATUS, Z
0082   2???           00226     GOTO    FINAL
                      00227     
0083   300C           00228     MOVLW   .12
0084   02??           00229     SUBWF CONTROL_TX, W
0085   1903           00230     BTFSC   STATUS, Z
0086   01??           00231     CLRF    CONTROL_TX
                      00232 
Warning[207]: Found label after column 1. (PRIMERO)
0087                  00233     PRIMERO
0087   08??           00234     MOVF    VALOR_CENTENAS_BOCA,W
0088   2???           00235     GOTO ENVIAR
                      00236     
Warning[207]: Found label after column 1. (SEGUNDO)
0089                  00237     SEGUNDO
0089   08??           00238     MOVF VALOR_DECENAS_BOCA,W
008A   2???           00239     GOTO ENVIAR
                      00240     
Warning[207]: Found label after column 1. (TERCERO)
008B                  00241     TERCERO
008B   08??           00242     MOVF VALOR_UNIDADES_BOCA,W
008C   2???           00243     GOTO ENVIAR
                      00244     
Warning[207]: Found label after column 1. (CUARTO)
008D                  00245     CUARTO
008D   08??           00246     MOVF    VALOR_CENTENAS_CEJA1,W
008E   2???           00247     GOTO ENVIAR
                      00248     
Warning[207]: Found label after column 1. (QUINTO)
008F                  00249     QUINTO
008F   08??           00250     MOVF VALOR_DECENAS_CEJA1,W
0090   2???           00251     GOTO ENVIAR
                      00252     
Warning[207]: Found label after column 1. (SEXTO)
0091                  00253     SEXTO
0091   08??           00254     MOVF VALOR_UNIDADES_CEJA1,W
0092   2???           00255     GOTO ENVIAR
                      00256     
Warning[207]: Found label after column 1. (SEPTIMO)
0093                  00257     SEPTIMO
0093   08??           00258     MOVF    VALOR_CENTENAS_CEJA2,W
0094   2???           00259     GOTO ENVIAR
                      00260     
Warning[207]: Found label after column 1. (OCTAVO)
0095                  00261     OCTAVO
0095   08??           00262     MOVF VALOR_DECENAS_CEJA2,W
0096   2???           00263     GOTO ENVIAR
                      00264     
Warning[207]: Found label after column 1. (NOVENO)
MPASM 5.77                     PRINCIPAL.ASM   11-27-2020  10:36:32         PAGE  7


LOC  OBJECT CODE     LINE SOURCE TEXT
  VALUE

0097                  00265     NOVENO
0097   08??           00266     MOVF VALOR_UNIDADES_CEJA2,W
0098   2???           00267     GOTO ENVIAR
                      00268     
Warning[207]: Found label after column 1. (COMA)
0099                  00269     COMA
0099   302C           00270     MOVLW   .44 ;COMA EN ASCII
009A   2???           00271     GOTO    ENVIAR_SIN_SUMA
                      00272     
Warning[207]: Found label after column 1. (FINAL)
009B                  00273     FINAL
009B   300A           00274     MOVLW   .10 ;SALTO DE LINEA
009C   2???           00275     GOTO    ENVIAR_SIN_SUMA
                      00276     
Warning[207]: Found label after column 1. (ENVIAR)
009D                  00277     ENVIAR
009D   3E30           00278     ADDLW   .48 ;SE PASA DE BCD A ASCII
Warning[207]: Found label after column 1. (ENVIAR_SIN_SUMA)
009E                  00279     ENVIAR_SIN_SUMA
009E   0099           00280     MOVWF   TXREG
009F   0A??           00281     INCF    CONTROL_TX,F
00A0   0008           00282     RETURN
                      00283     
                      00284     
                      00285 MAIN_PROG CODE                      ; let linker place main program
                      00286  
Warning[207]: Found label after column 1. (START)
0000                  00287  START
                      00288     
0000   2???           00289  CALL   CONFIG_IO
                      00290     
0001                  00291 LOOP:
0001   2???           00292     CALL    DELAY
                      00293     
0002   30??           00294     MOVLW   CANAL0
0003   0084           00295     MOVWF   FSR 
0004   2???           00296      CALL    TRANSFORMADA
0005   08??           00297     MOVF    AJUSTE_PWM,W
0006   0095           00298     MOVWF   CCPR1L
                      00299     
0007   30??           00300     MOVLW    CANAL1
0008   0084           00301     MOVWF   FSR
0009   2???           00302     CALL    TRANSFORMADA
Message[305]: Using default destination of 1 (file).
000A   08??           00303     MOVF    AJUSTE_PWM
000B   009B           00304     MOVWF   CCPR2L
                      00305     
000C   30??           00306     MOVLW   CANAL2
000D   0084           00307     MOVWF   FSR
000E   2???           00308     CALL   TRANSFORMADA
000F   08??           00309     MOVF    AJUSTE_PWM,W
0010   00??           00310     MOVWF TIMING1
                      00311     
MPASM 5.77                     PRINCIPAL.ASM   11-27-2020  10:36:32         PAGE  8


LOC  OBJECT CODE     LINE SOURCE TEXT
  VALUE

                      00312 
                      00313     ;******************************** CONVERSION A BINARIO CODIFICADO A DECIMAL*************************
                            *
0011   08??           00314     MOVF    CANAL0,W
0012   00??           00315     MOVWF   VALOR_BIN
0013   30??           00316     MOVLW   VALOR_CENTENAS_BOCA
0014   0084           00317     MOVWF   FSR
0015   2???           00318    CALL CONVERTIR
                      00319    
0016   08??           00320     MOVF    CANAL1,W
0017   00??           00321     MOVWF   VALOR_BIN
0018   30??           00322     MOVLW   VALOR_CENTENAS_CEJA1
0019   0084           00323     MOVWF   FSR
001A   2???           00324    CALL CONVERTIR
                      00325    
001B   08??           00326     MOVF    CANAL2,W
001C   00??           00327     MOVWF   VALOR_BIN
001D   30??           00328     MOVLW   VALOR_CENTENAS_CEJA2
001E   0084           00329     MOVWF   FSR
001F   2???           00330    CALL CONVERTIR
                      00331    
                      00332    
0020   2???           00333    CALL SEND_DATA
                      00334    
0021   2???           00335     GOTO LOOP    
                      00336     
                      00337     
0022                  00338 CONVERTIR:
0022   01??           00339     CLRF    VALOR_CENTENAS
0023   01??           00340     CLRF    VALOR_DECENAS
0024   01??           00341     CLRF    VALOR_UNIDADES
                      00342     
Warning[207]: Found label after column 1. (CENTENAS)
0025                  00343     CENTENAS
0025   3064           00344     MOVLW   .100
0026   02??           00345     SUBWF   VALOR_BIN,W    
0027   1C03           00346     BTFSS   STATUS, C   
0028   2???           00347     GOTO    DECENAS 
                      00348     
0029   0A??           00349     INCF    VALOR_CENTENAS,F
002A   00??           00350     MOVWF   VALOR_BIN
002B   2???           00351     GOTO CENTENAS
                      00352     
Warning[207]: Found label after column 1. (DECENAS)
002C                  00353     DECENAS
002C   300A           00354     MOVLW   .10
002D   02??           00355     SUBWF   VALOR_BIN,W
002E   1C03           00356     BTFSS   STATUS,C  
002F   2???           00357     GOTO UNIDADES
                      00358     
0030   0A??           00359     INCF    VALOR_DECENAS,F
0031   00??           00360     MOVWF   VALOR_BIN
0032   2???           00361     GOTO DECENAS
MPASM 5.77                     PRINCIPAL.ASM   11-27-2020  10:36:32         PAGE  9


LOC  OBJECT CODE     LINE SOURCE TEXT
  VALUE

                      00362     
Warning[207]: Found label after column 1. (UNIDADES)
0033                  00363     UNIDADES
0033   3001           00364     MOVLW .1
0034   02??           00365     SUBWF   VALOR_BIN,W
0035   1C03           00366     BTFSS   STATUS,C 
0036   2???           00367     GOTO    GUARDAR
                      00368     
0037   0A??           00369     INCF    VALOR_UNIDADES,F
0038   00??           00370     MOVWF VALOR_BIN
0039   2???           00371     GOTO UNIDADES
Warning[207]: Found label after column 1. (GUARDAR)
003A                  00372     GUARDAR
003A   08??           00373     MOVF    VALOR_CENTENAS,W 
003B   0080           00374     MOVWF   INDF
                      00375     
003C   0A84           00376     INCF    FSR,F
003D   08??           00377     MOVF    VALOR_DECENAS,W
003E   0080           00378     MOVWF   INDF
                      00379     
003F   0A84           00380     INCF    FSR,F
0040   08??           00381     MOVF   VALOR_UNIDADES,W
0041   0080           00382     MOVWF   INDF
0042   0008           00383     RETURN
                      00384     
                      00385     
0043                  00386 TRANSFORMADA
0043   1003           00387     BCF STATUS,C
0044   0C00           00388     RRF INDF, W 
0045   3E1F           00389     ADDLW   .31 
0046   00??           00390    MOVWF    AJUSTE_PWM 
0047   0008           00391    RETURN
                      00392    
                      00393    
Warning[207]: Found label after column 1. (CONFIG_IO)
0048                  00394    CONFIG_IO
0048   1383           00395     BCF STATUS, IRP ;BANCO 2 Y 3 EN EL DIRECCIONAMIENTO INDIRECTO
0049   01??           00396     CLRF    CANAL0
004A   01??           00397     CLRF    CANAL1
004B   01??           00398     CLRF    CANAL2
004C   01??           00399     CLRF    CONTROL_ADC
004D   01??           00400     CLRF    CONTROL_ONDA
004E   01??           00401     CLRF    CONTROL_TX
                      00402     
004F   1683 1703      00403     BANKSEL ANSEL
                      00404     
0051   300F           00405     MOVLW B'00001111'
Message[302]: Register in operand not in bank 0.  Ensure that bank bits are correct.
0052   0088           00406     MOVWF ANSEL
Message[302]: Register in operand not in bank 0.  Ensure that bank bits are correct.
0053   0189           00407     CLRF    ANSELH 
                      00408     
Message[302]: Register in operand not in bank 0.  Ensure that bank bits are correct.
MPASM 5.77                     PRINCIPAL.ASM   11-27-2020  10:36:32         PAGE 10


LOC  OBJECT CODE     LINE SOURCE TEXT
  VALUE

0054   1281           00409     BCF OPTION_REG, T0CS 
Message[302]: Register in operand not in bank 0.  Ensure that bank bits are correct.
0055   1181           00410     BCF OPTION_REG, PSA 
Message[302]: Register in operand not in bank 0.  Ensure that bank bits are correct.
0056   1101           00411     BCF OPTION_REG, PS2
Message[302]: Register in operand not in bank 0.  Ensure that bank bits are correct.
0057   1481           00412     BSF OPTION_REG,PS1
Message[302]: Register in operand not in bank 0.  Ensure that bank bits are correct.
0058   1401           00413     BSF OPTION_REG,PS0 
                      00414     
0059   1683 1303      00415     BANKSEL TRISA
005B   30FF           00416     MOVLW   .255
Message[302]: Register in operand not in bank 0.  Ensure that bank bits are correct.
005C   0085           00417     MOVWF   TRISA
Message[302]: Register in operand not in bank 0.  Ensure that bank bits are correct.
005D   0187           00418     CLRF           TRISC
Message[302]: Register in operand not in bank 0.  Ensure that bank bits are correct.
005E   0188           00419     CLRF           TRISD
                      00420     
005F   178B           00421     BSF INTCON,GIE 
0060   170B           00422     BSF INTCON, PEIE
                      00423   
                      00424     
Message[302]: Register in operand not in bank 0.  Ensure that bank bits are correct.
0061   170C           00425     BSF PIE1, ADIE 
Message[302]: Register in operand not in bank 0.  Ensure that bank bits are correct.
0062   168C           00426     BSF PIE1, RCIE 
                      00427 
0063   30FF           00428     MOVLW .255 
Message[302]: Register in operand not in bank 0.  Ensure that bank bits are correct.
0064   0092           00429     MOVWF  PR2 
Message[302]: Register in operand not in bank 0.  Ensure that bank bits are correct.
0065   019F           00430     CLRF    ADCON1 
Message[302]: Register in operand not in bank 0.  Ensure that bank bits are correct.
0066   1318           00431      BCF        TXSTA,TX9
Message[302]: Register in operand not in bank 0.  Ensure that bank bits are correct.
0067   1698           00432      BSF        TXSTA, TXEN
Message[302]: Register in operand not in bank 0.  Ensure that bank bits are correct.
0068   1218           00433      BCF        TXSTA, SYNC
Message[302]: Register in operand not in bank 0.  Ensure that bank bits are correct.
0069   1518           00434      BSF        TXSTA, BRGH
                      00435      
006A   3019           00436     MOVLW   .25 
Message[302]: Register in operand not in bank 0.  Ensure that bank bits are correct.
006B   0099           00437     MOVWF   SPBRG
                      00438     
006C   1283           00439     BCF STATUS,RP0 
                      00440     
006D   1798           00441     BSF RCSTA, SPEN
006E   1318           00442     BCF RCSTA, RX9
006F   1618           00443     BSF RCSTA, CREN
                      00444 
                      00445  
MPASM 5.77                     PRINCIPAL.ASM   11-27-2020  10:36:32         PAGE 11


LOC  OBJECT CODE     LINE SOURCE TEXT
  VALUE

                      00446     
0070   110B           00447     BCF INTCON, T0IF
0071   0181           00448     CLRF        TMR0
0072   168B           00449     BSF INTCON, T0IE
                      00450     
                      00451     
0073   1283 1303      00452     BANKSEL  CCP1CON
0075   1397           00453     BCF CCP1CON, 7
0076   1317           00454     BCF CCP1CON, 6
                      00455 
0077   1297           00456     BCF CCP1CON, 5
0078   1217           00457     BCF CCP1CON, 4
0079   1597           00458     BSF CCP1CON, 3
007A   1517           00459     BSF CCP1CON, 2
007B   1097           00460     BCF CCP1CON, 1
007C   1017           00461     BCF CCP1CON, 0
                      00462     
007D   1283 1303      00463     BANKSEL  CCP1CON 
007F   139D           00464     BCF CCP2CON, 7
0080   131D           00465     BCF CCP2CON, 6
0081   129D           00466     BCF CCP2CON, 5
0082   121D           00467     BCF CCP2CON, 4
0083   159D           00468     BSF CCP2CON, 3
0084   151D           00469     BSF CCP2CON, 2
0085   109D           00470     BCF CCP2CON, 1  
0086   109D           00471     BCF CCP2CON, 1
0087   101D           00472     BCF CCP2CON, 0
                      00473    
                      00474     
0088   1312           00475     BCF T2CON, 6
0089   1292           00476     BCF T2CON, 5
008A   1212           00477     BCF T2CON, 4
008B   1192           00478     BCF T2CON, 3    
008C   1112           00479     BCF T2CON, 2
008D   1492           00480     BSF T2CON, 1
008E   1412           00481     BSF T2CON, 0
008F   1512           00482     BSF T2CON, TMR2ON
                      00483     
0090   3041           00484     MOVLW   B'01000001' 
0091   009F           00485     MOVWF   ADCON0
                      00486     
                      00487 
0092   149F           00488     BSF ADCON0, GO
                      00489    
0093   0008           00490    RETURN
                      00491    
                      00492     
Warning[207]: Found label after column 1. (DELAY)
0094                  00493  DELAY
0094   30FF           00494     MOVLW   .255
0095   00??           00495     MOVWF   DEL
0096   0B??           00496     DECFSZ  DEL, F
0097   2???           00497     GOTO    $-1
MPASM 5.77                     PRINCIPAL.ASM   11-27-2020  10:36:32         PAGE 12


LOC  OBJECT CODE     LINE SOURCE TEXT
  VALUE

0098   0008           00498     RETURN
                      00499     
20D4 3FFF             00500     END
MPASM 5.77                     PRINCIPAL.ASM   11-27-2020  10:36:32         PAGE 13


SYMBOL TABLE
  LABEL                             VALUE 

ABDEN                             00000000
ABDOVF                            00000007
ACKDT                             00000005
ACKEN                             00000004
ACKSTAT                           00000006
ADCON0                            0000001F
ADCON1                            0000009F
ADCS0                             00000006
ADCS1                             00000007
ADDEN                             00000003
ADFM                              00000007
ADIE                              00000006
ADIF                              00000006
ADON                              00000000
ADRESH                            0000001E
ADRESL                            0000009E
AJUSTE_PWM                        00000007
ANS0                              00000000
ANS1                              00000001
ANS10                             00000002
ANS11                             00000003
ANS12                             00000004
ANS13                             00000005
ANS2                              00000002
ANS3                              00000003
ANS4                              00000004
ANS5                              00000005
ANS6                              00000006
ANS7                              00000007
ANS8                              00000000
ANS9                              00000001
ANSEL                             00000188
ANSELH                            00000189
BAUDCTL                           00000187
BCLIE                             00000003
BCLIF                             00000003
BF                                00000000
BRG0                              00000000
BRG1                              00000001
BRG10                             00000002
BRG11                             00000003
BRG12                             00000004
BRG13                             00000005
BRG14                             00000006
BRG15                             00000007
BRG16                             00000003
BRG2                              00000002
BRG3                              00000003
BRG4                              00000004
BRG5                              00000005
BRG6                              00000006
BRG7                              00000007
BRG8                              00000000
MPASM 5.77                     PRINCIPAL.ASM   11-27-2020  10:36:32         PAGE 14


SYMBOL TABLE
  LABEL                             VALUE 

BRG9                              00000001
BRGH                              00000002
C                                 00000000
C1CH0                             00000000
C1CH1                             00000001
C1IE                              00000005
C1IF                              00000005
C1OE                              00000005
C1ON                              00000007
C1OUT                             00000006
C1POL                             00000004
C1R                               00000002
C1RSEL                            00000005
C1SEN                             00000005
C2CH0                             00000000
C2CH1                             00000001
C2IE                              00000006
C2IF                              00000006
C2OE                              00000005
C2ON                              00000007
C2OUT                             00000006
C2POL                             00000004
C2R                               00000002
C2REN                             00000004
C2RSEL                            00000004
C2SYNC                            00000000
CANAL0                            00000003
CANAL1                            00000004
CANAL2                            00000005
CCP1CON                           00000017
CCP1IE                            00000002
CCP1IF                            00000002
CCP1M0                            00000000
CCP1M1                            00000001
CCP1M2                            00000002
CCP1M3                            00000003
CCP1X                             00000005
CCP1Y                             00000004
CCP2CON                           0000001D
CCP2IE                            00000000
CCP2IF                            00000000
CCP2M0                            00000000
CCP2M1                            00000001
CCP2M2                            00000002
CCP2M3                            00000003
CCP2X                             00000005
CCP2Y                             00000004
CCPR1                             00000015
CCPR1H                            00000016
CCPR1L                            00000015
CCPR2                             0000001B
CCPR2H                            0000001C
CCPR2L                            0000001B
MPASM 5.77                     PRINCIPAL.ASM   11-27-2020  10:36:32         PAGE 15


SYMBOL TABLE
  LABEL                             VALUE 

CENTENAS                          00000025
CHS0                              00000002
CHS1                              00000003
CHS2                              00000004
CHS3                              00000005
CKE                               00000006
CKP                               00000004
CM1CON0                           00000107
CM2CON0                           00000108
CM2CON1                           00000109
COMA                              00000099
CONFIG_IO                         00000048
CONTROL_ADC                       00000006
CONTROL_ONDA                      0000000A
CONTROL_TX                        0000000B
CONVERTIR                         00000022
CREN                              00000004
CSRC                              00000007
CUARTO                            0000008D
D                                 00000005
DATA_ADDRESS                      00000005
DC                                00000001
DC1B0                             00000004
DC1B1                             00000005
DC2B0                             00000004
DC2B1                             00000005
DECENAS                           0000002C
DEL                               00000019
DELAY                             00000094
D_A                               00000005
D_NOT_A                           00000005
ECCPAS                            0000009C
ECCPAS0                           00000004
ECCPAS1                           00000005
ECCPAS2                           00000006
ECCPASE                           00000007
EEADR                             0000010D
EEADRH                            0000010F
EECON1                            0000018C
EECON2                            0000018D
EEDAT                             0000010C
EEDATA                            0000010C
EEDATH                            0000010E
EEIE                              00000004
EEIF                              00000004
EEPGD                             00000007
ENVIAR                            0000009D
ENVIAR_SIN_SUMA                   0000009E
F                                 00000001
FERR                              00000002
FIN                               00000048
FINAL                             0000009B
FSR                               00000004
MPASM 5.77                     PRINCIPAL.ASM   11-27-2020  10:36:32         PAGE 16


SYMBOL TABLE
  LABEL                             VALUE 

FSR_TEMP                          00000002
FVREN                             00000000
GCEN                              00000007
GIE                               00000007
GO                                00000001
GO_DONE                           00000001
GO_NOT_DONE                       00000001
GUARDAR                           0000003A
HTS                               00000002
I2C_DATA                          00000005
I2C_READ                          00000002
I2C_START                         00000003
I2C_STOP                          00000004
INDF                              00000000
INTCON                            0000000B
INTE                              00000004
INTEDG                            00000006
INTF                              00000001
INT_ADC                           00000029
INT_TMR0                          00000009
IOCB                              00000096
IOCB0                             00000000
IOCB1                             00000001
IOCB2                             00000002
IOCB3                             00000003
IOCB4                             00000004
IOCB5                             00000005
IOCB6                             00000006
IOCB7                             00000007
IRCF0                             00000004
IRCF1                             00000005
IRCF2                             00000006
IRP                               00000007
LOOP                              00000001
LTS                               00000001
MC1OUT                            00000007
MC2OUT                            00000006
MSK                               00000093
MSK0                              00000000
MSK1                              00000001
MSK2                              00000002
MSK3                              00000003
MSK4                              00000004
MSK5                              00000005
MSK6                              00000006
MSK7                              00000007
NOT_A                             00000005
NOT_ADDRESS                       00000005
NOT_BO                            00000000
NOT_BOR                           00000000
NOT_DONE                          00000001
NOT_PD                            00000003
NOT_POR                           00000001
MPASM 5.77                     PRINCIPAL.ASM   11-27-2020  10:36:32         PAGE 17


SYMBOL TABLE
  LABEL                             VALUE 

NOT_RBPU                          00000007
NOT_RC8                           00000006
NOT_T1SYNC                        00000002
NOT_TO                            00000004
NOT_TX8                           00000006
NOT_W                             00000002
NOT_WRITE                         00000002
NOVENO                            00000097
OCTAVO                            00000095
OERR                              00000001
ONDA1                             0000001E
ONDA2                             00000025
ONDA_INICIA                       00000018
OPTION_REG                        00000081
OSCCON                            0000008F
OSCTUNE                           00000090
OSFIE                             00000007
OSFIF                             00000007
OSTS                              00000003
P                                 00000004
P1M0                              00000006
P1M1                              00000007
PCL                               00000002
PCLATH                            0000000A
PCON                              0000008E
PDC0                              00000000
PDC1                              00000001
PDC2                              00000002
PDC3                              00000003
PDC4                              00000004
PDC5                              00000005
PDC6                              00000006
PEIE                              00000006
PEN                               00000002
PIE1                              0000008C
PIE2                              0000008D
PIR1                              0000000C
PIR2                              0000000D
POP                               0000004A
PORTA                             00000005
PORTB                             00000006
PORTC                             00000007
PORTD                             00000008
PORTE                             00000009
PR2                               00000092
PRIMERO                           00000087
PRSEN                             00000007
PS0                               00000000
PS1                               00000001
PS2                               00000002
PSA                               00000003
PSSAC0                            00000002
PSSAC1                            00000003
MPASM 5.77                     PRINCIPAL.ASM   11-27-2020  10:36:32         PAGE 18


SYMBOL TABLE
  LABEL                             VALUE 

PSSBD0                            00000000
PSSBD1                            00000001
PSTRCON                           0000009D
PULSR                             00000002
PULSS                             00000003
PUSH                              00000004
PWM1CON                           0000009B
QUINTO                            0000008F
R                                 00000002
RA0                               00000000
RA1                               00000001
RA2                               00000002
RA3                               00000003
RA4                               00000004
RA5                               00000005
RA6                               00000006
RA7                               00000007
RB0                               00000000
RB1                               00000001
RB2                               00000002
RB3                               00000003
RB4                               00000004
RB5                               00000005
RB6                               00000006
RB7                               00000007
RBIE                              00000003
RBIF                              00000000
RC0                               00000000
RC1                               00000001
RC2                               00000002
RC3                               00000003
RC4                               00000004
RC5                               00000005
RC6                               00000006
RC7                               00000007
RC8_9                             00000006
RC9                               00000006
RCD8                              00000000
RCEN                              00000003
RCIDL                             00000006
RCIE                              00000005
RCIF                              00000005
RCREG                             0000001A
RCSTA                             00000018
RD                                00000000
RD0                               00000000
RD1                               00000001
RD2                               00000002
RD3                               00000003
RD4                               00000004
RD5                               00000005
RD6                               00000006
RD7                               00000007
MPASM 5.77                     PRINCIPAL.ASM   11-27-2020  10:36:32         PAGE 19


SYMBOL TABLE
  LABEL                             VALUE 

RE0                               00000000
RE1                               00000001
RE2                               00000002
RE3                               00000003
READ_WRITE                        00000002
RP0                               00000005
RP1                               00000006
RSEN                              00000001
RT_ADC0                           00000039
RT_ADC1                           0000003E
RT_ADC2                           00000043
RX9                               00000006
RX9D                              00000000
R_NOT_W                           00000002
R_W                               00000002
S                                 00000003
SBOREN                            00000004
SCKP                              00000004
SCS                               00000000
SEGUNDO                           00000089
SEN                               00000000
SENDB                             00000003
SEND_DATA                         00000051
SEPTIMO                           00000093
SEXTO                             00000091
SMP                               00000007
SPBRG                             00000099
SPBRGH                            0000009A
SPEN                              00000007
SR0                               00000006
SR1                               00000007
SRCON                             00000185
SREN                              00000005
SSPADD                            00000093
SSPBUF                            00000013
SSPCON                            00000014
SSPCON2                           00000091
SSPEN                             00000005
SSPIE                             00000003
SSPIF                             00000003
SSPM0                             00000000
SSPM1                             00000001
SSPM2                             00000002
SSPM3                             00000003
SSPMSK                            00000093
SSPOV                             00000006
SSPSTAT                           00000094
START                             00000000
STATUS                            00000003
STATUS_TEMP                       00000001
STRA                              00000000
STRB                              00000001
STRC                              00000002
MPASM 5.77                     PRINCIPAL.ASM   11-27-2020  10:36:32         PAGE 20


SYMBOL TABLE
  LABEL                             VALUE 

STRD                              00000003
STRSYNC                           00000004
SWDTEN                            00000000
SYNC                              00000004
T0CS                              00000005
T0IE                              00000005
T0IF                              00000002
T0SE                              00000004
T1CKPS0                           00000004
T1CKPS1                           00000005
T1CON                             00000010
T1GINV                            00000007
T1GIV                             00000007
T1GSS                             00000001
T1INSYNC                          00000002
T1OSCEN                           00000003
T1SYNC                            00000002
T2CKPS0                           00000000
T2CKPS1                           00000001
T2CON                             00000012
TERCERO                           0000008B
TIMING1                           00000008
TIMING2                           00000009
TMR0                              00000001
TMR0IE                            00000005
TMR0IF                            00000002
TMR1                              0000000E
TMR1CS                            00000001
TMR1GE                            00000006
TMR1H                             0000000F
TMR1IE                            00000000
TMR1IF                            00000000
TMR1L                             0000000E
TMR1ON                            00000000
TMR2                              00000011
TMR2IE                            00000001
TMR2IF                            00000001
TMR2ON                            00000002
TOUTPS0                           00000003
TOUTPS1                           00000004
TOUTPS2                           00000005
TOUTPS3                           00000006
TRANSFORMADA                      00000043
TRISA                             00000085
TRISA0                            00000000
TRISA1                            00000001
TRISA2                            00000002
TRISA3                            00000003
TRISA4                            00000004
TRISA5                            00000005
TRISA6                            00000006
TRISA7                            00000007
TRISB                             00000086
MPASM 5.77                     PRINCIPAL.ASM   11-27-2020  10:36:32         PAGE 21


SYMBOL TABLE
  LABEL                             VALUE 

TRISB0                            00000000
TRISB1                            00000001
TRISB2                            00000002
TRISB3                            00000003
TRISB4                            00000004
TRISB5                            00000005
TRISB6                            00000006
TRISB7                            00000007
TRISC                             00000087
TRISC0                            00000000
TRISC1                            00000001
TRISC2                            00000002
TRISC3                            00000003
TRISC4                            00000004
TRISC5                            00000005
TRISC6                            00000006
TRISC7                            00000007
TRISD                             00000088
TRISD0                            00000000
TRISD1                            00000001
TRISD2                            00000002
TRISD3                            00000003
TRISD4                            00000004
TRISD5                            00000005
TRISD6                            00000006
TRISD7                            00000007
TRISE                             00000089
TRISE0                            00000000
TRISE1                            00000001
TRISE2                            00000002
TRISE3                            00000003
TRMT                              00000001
TUN0                              00000000
TUN1                              00000001
TUN2                              00000002
TUN3                              00000003
TUN4                              00000004
TX8_9                             00000006
TX9                               00000006
TX9D                              00000000
TXD8                              00000000
TXEN                              00000005
TXIE                              00000004
TXIF                              00000004
TXREG                             00000019
TXSTA                             00000098
UA                                00000001
ULPWUE                            00000005
ULPWUIE                           00000002
ULPWUIF                           00000002
UNIDADES                          00000033
VALOR_BIN                         00000015
VALOR_CENTENAS                    00000016
MPASM 5.77                     PRINCIPAL.ASM   11-27-2020  10:36:32         PAGE 22


SYMBOL TABLE
  LABEL                             VALUE 

VALOR_CENTENAS_BOCA               0000000C
VALOR_CENTENAS_CEJA1              0000000F
VALOR_CENTENAS_CEJA2              00000012
VALOR_DECENAS                     00000017
VALOR_DECENAS_BOCA                0000000D
VALOR_DECENAS_CEJA1               00000010
VALOR_DECENAS_CEJA2               00000013
VALOR_UNIDADES                    00000018
VALOR_UNIDADES_BOCA               0000000E
VALOR_UNIDADES_CEJA1              00000011
VALOR_UNIDADES_CEJA2              00000014
VCFG0                             00000004
VCFG1                             00000005
VR0                               00000000
VR1                               00000001
VR2                               00000002
VR3                               00000003
VRCON                             00000097
VREN                              00000007
VROE                              00000006
VRR                               00000005
VRSS                              00000004
W                                 00000000
WCOL                              00000007
WDTCON                            00000105
WDTPS0                            00000001
WDTPS1                            00000002
WDTPS2                            00000003
WDTPS3                            00000004
WPUB                              00000095
WPUB0                             00000000
WPUB1                             00000001
WPUB2                             00000002
WPUB3                             00000003
WPUB4                             00000004
WPUB5                             00000005
WPUB6                             00000006
WPUB7                             00000007
WR                                00000001
WREN                              00000002
WRERR                             00000003
WUE                               00000001
W_TEMP                            00000000
Z                                 00000002
_BOR21V                           00003EFF
_BOR40V                           00003FFF
_BOR4V_BOR21V                     00003EFF
_BOR4V_BOR40V                     00003FFF
_BOREN_NSLEEP                     00003EFF
_BOREN_OFF                        00003CFF
_BOREN_ON                         00003FFF
_BOREN_SBODEN                     00003DFF
_BOR_NSLEEP                       00003EFF
MPASM 5.77                     PRINCIPAL.ASM   11-27-2020  10:36:32         PAGE 23


SYMBOL TABLE
  LABEL                             VALUE 

_BOR_OFF                          00003CFF
_BOR_ON                           00003FFF
_BOR_SBODEN                       00003DFF
_CONFIG1                          00002007
_CONFIG2                          00002008
_CPD_OFF                          00003FFF
_CPD_ON                           00003F7F
_CP_OFF                           00003FFF
_CP_ON                            00003FBF
_DEBUG_OFF                        00003FFF
_DEBUG_ON                         00001FFF
_DEVID1                           00002006
_EC_OSC                           00003FFB
_EXTRC                            00003FFF
_EXTRCIO                          00003FFE
_EXTRC_OSC_CLKOUT                 00003FFF
_EXTRC_OSC_NOCLKOUT               00003FFE
_FCMEN_OFF                        000037FF
_FCMEN_ON                         00003FFF
_FOSC_EC                          00003FFB
_FOSC_EXTRC_CLKOUT                00003FFF
_FOSC_EXTRC_NOCLKOUT              00003FFE
_FOSC_HS                          00003FFA
_FOSC_INTRC_CLKOUT                00003FFD
_FOSC_INTRC_NOCLKOUT              00003FFC
_FOSC_LP                          00003FF8
_FOSC_XT                          00003FF9
_HS_OSC                           00003FFA
_IDLOC0                           00002000
_IDLOC1                           00002001
_IDLOC2                           00002002
_IDLOC3                           00002003
_IESO_OFF                         00003BFF
_IESO_ON                          00003FFF
_INTOSC                           00003FFD
_INTOSCIO                         00003FFC
_INTRC_OSC_CLKOUT                 00003FFD
_INTRC_OSC_NOCLKOUT               00003FFC
_LP_OSC                           00003FF8
_LVP_OFF                          00002FFF
_LVP_ON                           00003FFF
_MAIN_PROG_0097                   00000097
_MCLRE_OFF                        00003FDF
_MCLRE_ON                         00003FFF
_PWRTE_OFF                        00003FFF
_PWRTE_ON                         00003FEF
_WDTE_OFF                         00003FF7
_WDTE_ON                          00003FFF
_WDT_OFF                          00003FF7
_WDT_ON                           00003FFF
_WRT_1FOURTH                      00003BFF
_WRT_256                          00003DFF
_WRT_HALF                         000039FF
MPASM 5.77                     PRINCIPAL.ASM   11-27-2020  10:36:32         PAGE 24


SYMBOL TABLE
  LABEL                             VALUE 

_WRT_OFF                          00003FFF
_XT_OSC                           00003FF9
__16F887                          00000001

Errors   :     0
Warnings :    54 reported,     0 suppressed
Messages :    20 reported,     0 suppressed

